target datalayout = "e-m:e-p270:32:32-p271:32:32-p272:64:64-i64:64-i128:128-f80:128-n8:16:32:64-S128"
target triple = "x86_64-unknown-linux-gnu"

%"struct.std::_Vector_base.3" = type { %"struct.std::_Vector_base<long, std::allocator<long>>::_Vector_impl" }
%"struct.std::_Vector_base<long, std::allocator<long>>::_Vector_impl" = type { %"struct.std::_Vector_base<long, std::allocator<long>>::_Vector_impl_data" }
%"struct.std::_Vector_base<long, std::allocator<long>>::_Vector_impl_data" = type { ptr, ptr, ptr }
%"class.std::vector.2" = type { %"struct.std::_Vector_base.3" }
%"struct.std::_Vector_base.11" = type { %"struct.std::_Vector_base<std::__cxx11::basic_string<char>, std::allocator<std::__cxx11::basic_string<char>>>::_Vector_impl" }
%"struct.std::_Vector_base<std::__cxx11::basic_string<char>, std::allocator<std::__cxx11::basic_string<char>>>::_Vector_impl" = type { %"struct.std::_Vector_base<std::__cxx11::basic_string<char>, std::allocator<std::__cxx11::basic_string<char>>>::_Vector_impl_data" }
%"struct.std::_Vector_base<std::__cxx11::basic_string<char>, std::allocator<std::__cxx11::basic_string<char>>>::_Vector_impl_data" = type { ptr, ptr, ptr }
%"class.arrow::Tensor" = type { ptr, %"class.std::shared_ptr", %"class.std::shared_ptr.7", %"class.std::vector.2", %"class.std::vector.2", %"class.std::vector.10" }
%"class.std::shared_ptr" = type { %"class.std::__shared_ptr" }
%"class.std::__shared_ptr" = type { ptr, %"class.std::__shared_count" }
%"class.std::__shared_count" = type { ptr }
%"class.std::shared_ptr.7" = type { %"class.std::__shared_ptr.8" }
%"class.std::__shared_ptr.8" = type { ptr, %"class.std::__shared_count" }
%"class.std::vector.10" = type { %"struct.std::_Vector_base.11" }

; Function Attrs: mustprogress uwtable
define noundef zeroext i1 @_ZNK5arrow6Tensor15is_column_majorEv(ptr noundef nonnull align 8 dereferenceable(112) %this) #0 align 2 {
entry:
  %this.addr = alloca ptr, align 8
  store ptr %this, ptr %this.addr, align 8
  %this1 = load ptr, ptr %this.addr, align 8
  %type_ = getelementptr inbounds %"class.arrow::Tensor", ptr %this1, i32 0, i32 1
  %shape_ = getelementptr inbounds %"class.arrow::Tensor", ptr %this1, i32 0, i32 3
  %strides_ = getelementptr inbounds %"class.arrow::Tensor", ptr %this1, i32 0, i32 4
  %call = call noundef zeroext i1 @_ZN5arrow12_GLOBAL__N_126IsTensorStridesColumnMajorERKSt10shared_ptrINS_8DataTypeEERKSt6vectorIlSaIlEESA_(ptr noundef nonnull align 8 dereferenceable(16) %type_, ptr noundef nonnull align 8 dereferenceable(24) %shape_, ptr noundef nonnull align 8 dereferenceable(24) %strides_)
  ret i1 %call
}